target datalayout = "e-m:e-p270:32:32-p271:32:32-p272:64:64-i64:64-i128:128-f80:128-n8:16:32:64-S128"
target triple = "x86_64-pc-linux-gnu"

%struct.mpd_t = type { i8, i64, i64, i64, i64, ptr }

; Function Attrs: inlinehint nounwind uwtable
define internal void @_mpd_round(ptr noundef %0, ptr noundef %1, i64 noundef %2, ptr noundef %3, ptr noundef %4) #3 {
  %6 = alloca ptr, align 8
  %7 = alloca ptr, align 8
  %8 = alloca i64, align 8
  %9 = alloca ptr, align 8
  %10 = alloca ptr, align 8
  %11 = alloca i64, align 8
  %12 = alloca i32, align 4
  store ptr %0, ptr %6, align 8, !tbaa !3
  store ptr %1, ptr %7, align 8, !tbaa !3
  store i64 %2, ptr %8, align 8, !tbaa !20
  store ptr %3, ptr %9, align 8, !tbaa !10
  store ptr %4, ptr %10, align 8, !tbaa !12
  call void @llvm.lifetime.start.p0(i64 8, ptr %11) #10
  %13 = load ptr, ptr %7, align 8, !tbaa !3
  %14 = getelementptr inbounds nuw %struct.mpd_t, ptr %13, i32 0, i32 1
  %15 = load i64, ptr %14, align 8, !tbaa !19
  %16 = load ptr, ptr %7, align 8, !tbaa !3
  %17 = getelementptr inbounds nuw %struct.mpd_t, ptr %16, i32 0, i32 2
  %18 = load i64, ptr %17, align 8, !tbaa !42
  %19 = add i64 %15, %18
  %20 = load i64, ptr %8, align 8, !tbaa !20
  %21 = sub i64 %19, %20
  store i64 %21, ptr %11, align 8, !tbaa !20
  %22 = load i64, ptr %8, align 8, !tbaa !20
  %23 = icmp sle i64 %22, 0
  br i1 %23, label %24, label %27

24:                                               ; preds = %5
  %25 = load ptr, ptr %6, align 8, !tbaa !3
  %26 = load ptr, ptr %10, align 8, !tbaa !12
  call void @mpd_seterror(ptr noundef %25, i32 noundef 256, ptr noundef %26)
  store i32 1, ptr %12, align 4
  br label %59

27:                                               ; preds = %5
  %28 = load ptr, ptr %7, align 8, !tbaa !3
  %29 = call i32 @mpd_isspecial(ptr noundef %28)
  %30 = icmp ne i32 %29, 0
  br i1 %30, label %35, label %31

31:                                               ; preds = %27
  %32 = load ptr, ptr %7, align 8, !tbaa !3
  %33 = call i32 @mpd_iszero(ptr noundef %32)
  %34 = icmp ne i32 %33, 0
  br i1 %34, label %35, label %40

35:                                               ; preds = %31, %27
  %36 = load ptr, ptr %6, align 8, !tbaa !3
  %37 = load ptr, ptr %7, align 8, !tbaa !3
  %38 = load ptr, ptr %10, align 8, !tbaa !12
  %39 = call i32 @mpd_qcopy(ptr noundef %36, ptr noundef %37, ptr noundef %38)
  store i32 1, ptr %12, align 4
  br label %59

40:                                               ; preds = %31
  %41 = load ptr, ptr %6, align 8, !tbaa !3
  %42 = load ptr, ptr %7, align 8, !tbaa !3
  %43 = load i64, ptr %11, align 8, !tbaa !20
  %44 = load ptr, ptr %9, align 8, !tbaa !10
  %45 = load ptr, ptr %10, align 8, !tbaa !12
  call void @mpd_qrescale_fmt(ptr noundef %41, ptr noundef %42, i64 noundef %43, ptr noundef %44, ptr noundef %45)
  %46 = load ptr, ptr %6, align 8, !tbaa !3
  %47 = getelementptr inbounds nuw %struct.mpd_t, ptr %46, i32 0, i32 2
  %48 = load i64, ptr %47, align 8, !tbaa !42
  %49 = load i64, ptr %8, align 8, !tbaa !20
  %50 = icmp sgt i64 %48, %49
  br i1 %50, label %51, label %58

51:                                               ; preds = %40
  %52 = load ptr, ptr %6, align 8, !tbaa !3
  %53 = load ptr, ptr %6, align 8, !tbaa !3
  %54 = load i64, ptr %11, align 8, !tbaa !20
  %55 = add i64 %54, 1
  %56 = load ptr, ptr %9, align 8, !tbaa !10
  %57 = load ptr, ptr %10, align 8, !tbaa !12
  call void @mpd_qrescale_fmt(ptr noundef %52, ptr noundef %53, i64 noundef %55, ptr noundef %56, ptr noundef %57)
  br label %58

58:                                               ; preds = %51, %40
  store i32 0, ptr %12, align 4
  br label %59

59:                                               ; preds = %58, %35, %24
  call void @llvm.lifetime.end.p0(i64 8, ptr %11) #10
  %60 = load i32, ptr %12, align 4
  switch i32 %60, label %62 [
    i32 0, label %61
    i32 1, label %61
  ]

61:                                               ; preds = %59, %59
  ret void

62:                                               ; preds = %59
  unreachable
}