; Function Attrs: inlinehint nounwind uwtable
define internal fastcc void @_mpd_round(ptr noundef nonnull %0, ptr noundef %1, i64 noundef %2, ptr noundef %3, ptr noundef nonnull %4) unnamed_addr #11 {
  %6 = getelementptr inbounds nuw i8, ptr %1, i64 8
  %7 = load i64, ptr %6, align 8, !tbaa !10
  %8 = getelementptr inbounds nuw i8, ptr %1, i64 16
  %9 = load i64, ptr %8, align 8, !tbaa !33
  %10 = sub i64 %7, %2
  %11 = add i64 %10, %9
  %12 = icmp slt i64 %2, 1
  br i1 %12, label %13, label %14

13:                                               ; preds = %5
  tail call void @mpd_seterror(ptr noundef nonnull %0, i32 noundef 256, ptr noundef nonnull %4) #18
  br label %26

14:                                               ; preds = %5
  %15 = tail call i32 @mpd_isspecial(ptr noundef nonnull %1) #18
  %.not = icmp eq i32 %15, 0
  br i1 %.not, label %16, label %18

16:                                               ; preds = %14
  %17 = tail call i32 @mpd_iszero(ptr noundef nonnull %1) #18
  %.not22 = icmp eq i32 %17, 0
  br i1 %.not22, label %20, label %18

18:                                               ; preds = %16, %14
  %19 = tail call i32 @mpd_qcopy(ptr noundef nonnull %0, ptr noundef nonnull %1, ptr noundef nonnull %4) #18
  br label %26

20:                                               ; preds = %16
  tail call void @mpd_qrescale_fmt(ptr noundef nonnull %0, ptr noundef nonnull %1, i64 noundef %11, ptr noundef %3, ptr noundef nonnull %4) #18
  %21 = getelementptr inbounds nuw i8, ptr %0, i64 16
  %22 = load i64, ptr %21, align 8, !tbaa !33
  %23 = icmp sgt i64 %22, %2
  br i1 %23, label %24, label %26

24:                                               ; preds = %20
  %25 = add i64 %11, 1
  tail call void @mpd_qrescale_fmt(ptr noundef nonnull %0, ptr noundef nonnull %0, i64 noundef %25, ptr noundef %3, ptr noundef nonnull %4) #18
  br label %26

26:                                               ; preds = %20, %24, %18, %13
  ret void
}